target datalayout = "e-m:e-p270:32:32-p271:32:32-p272:64:64-i64:64-i128:128-f80:128-n8:16:32:64-S128"
target triple = "x86_64-unknown-linux-gnu"

%class.aiMatrix4x4t = type { float, float, float, float, float, float, float, float, float, float, float, float, float, float, float, float }

; Function Attrs: mustprogress nounwind uwtable
define linkonce_odr noundef float @_ZSt3sinf(float noundef %__x) #0 comdat {
entry:
  %__x.addr = alloca float, align 4
  store float %__x, ptr %__x.addr, align 4
  %0 = load float, ptr %__x.addr, align 4
  %call = call float @sinf(float noundef %0) #3
  ret float %call
}

; Function Attrs: mustprogress nounwind uwtable
define linkonce_odr noundef float @_ZSt3cosf(float noundef %__x) #0 comdat {
entry:
  %__x.addr = alloca float, align 4
  store float %__x, ptr %__x.addr, align 4
  %0 = load float, ptr %__x.addr, align 4
  %call = call float @cosf(float noundef %0) #3
  ret float %call
}

; Function Attrs: mustprogress nounwind uwtable
define linkonce_odr hidden noundef nonnull align 4 dereferenceable(64) ptr @_ZN12aiMatrix4x4tIfE18FromEulerAnglesXYZEfff(ptr noundef nonnull align 4 dereferenceable(64) %this, float noundef %x, float noundef %y, float noundef %z) #0 comdat align 2 {
entry:
  %this.addr = alloca ptr, align 8
  %x.addr = alloca float, align 4
  %y.addr = alloca float, align 4
  %z.addr = alloca float, align 4
  %_this = alloca ptr, align 8
  %cx = alloca float, align 4
  %sx = alloca float, align 4
  %cy = alloca float, align 4
  %sy = alloca float, align 4
  %cz = alloca float, align 4
  %sz = alloca float, align 4
  store ptr %this, ptr %this.addr, align 8
  store float %x, ptr %x.addr, align 4
  store float %y, ptr %y.addr, align 4
  store float %z, ptr %z.addr, align 4
  %this1 = load ptr, ptr %this.addr, align 8
  store ptr %this1, ptr %_this, align 8
  %0 = load float, ptr %x.addr, align 4
  %call = call noundef float @_ZSt3cosf(float noundef %0)
  store float %call, ptr %cx, align 4
  %1 = load float, ptr %x.addr, align 4
  %call2 = call noundef float @_ZSt3sinf(float noundef %1)
  store float %call2, ptr %sx, align 4
  %2 = load float, ptr %y.addr, align 4
  %call3 = call noundef float @_ZSt3cosf(float noundef %2)
  store float %call3, ptr %cy, align 4
  %3 = load float, ptr %y.addr, align 4
  %call4 = call noundef float @_ZSt3sinf(float noundef %3)
  store float %call4, ptr %sy, align 4
  %4 = load float, ptr %z.addr, align 4
  %call5 = call noundef float @_ZSt3cosf(float noundef %4)
  store float %call5, ptr %cz, align 4
  %5 = load float, ptr %z.addr, align 4
  %call6 = call noundef float @_ZSt3sinf(float noundef %5)
  store float %call6, ptr %sz, align 4
  %6 = load float, ptr %cz, align 4
  %7 = load float, ptr %cy, align 4
  %mul = fmul float %6, %7
  %8 = load ptr, ptr %_this, align 8
  %a1 = getelementptr inbounds %class.aiMatrix4x4t, ptr %8, i32 0, i32 0
  store float %mul, ptr %a1, align 4
  %9 = load float, ptr %cz, align 4
  %10 = load float, ptr %sy, align 4
  %mul7 = fmul float %9, %10
  %11 = load float, ptr %sx, align 4
  %12 = load float, ptr %sz, align 4
  %13 = load float, ptr %cx, align 4
  %mul9 = fmul float %12, %13
  %neg = fneg float %mul9
  %14 = call float @llvm.fmuladd.f32(float %mul7, float %11, float %neg)
  %15 = load ptr, ptr %_this, align 8
  %a2 = getelementptr inbounds %class.aiMatrix4x4t, ptr %15, i32 0, i32 1
  store float %14, ptr %a2, align 4
  %16 = load float, ptr %sz, align 4
  %17 = load float, ptr %sx, align 4
  %18 = load float, ptr %cz, align 4
  %19 = load float, ptr %sy, align 4
  %mul11 = fmul float %18, %19
  %20 = load float, ptr %cx, align 4
  %mul12 = fmul float %mul11, %20
  %21 = call float @llvm.fmuladd.f32(float %16, float %17, float %mul12)
  %22 = load ptr, ptr %_this, align 8
  %a3 = getelementptr inbounds %class.aiMatrix4x4t, ptr %22, i32 0, i32 2
  store float %21, ptr %a3, align 4
  %23 = load float, ptr %sz, align 4
  %24 = load float, ptr %cy, align 4
  %mul13 = fmul float %23, %24
  %25 = load ptr, ptr %_this, align 8
  %b1 = getelementptr inbounds %class.aiMatrix4x4t, ptr %25, i32 0, i32 4
  store float %mul13, ptr %b1, align 4
  %26 = load float, ptr %cz, align 4
  %27 = load float, ptr %cx, align 4
  %28 = load float, ptr %sz, align 4
  %29 = load float, ptr %sy, align 4
  %mul15 = fmul float %28, %29
  %30 = load float, ptr %sx, align 4
  %mul16 = fmul float %mul15, %30
  %31 = call float @llvm.fmuladd.f32(float %26, float %27, float %mul16)
  %32 = load ptr, ptr %_this, align 8
  %b2 = getelementptr inbounds %class.aiMatrix4x4t, ptr %32, i32 0, i32 5
  store float %31, ptr %b2, align 4
  %33 = load float, ptr %sz, align 4
  %34 = load float, ptr %sy, align 4
  %mul17 = fmul float %33, %34
  %35 = load float, ptr %cx, align 4
  %36 = load float, ptr %cz, align 4
  %37 = load float, ptr %sx, align 4
  %mul19 = fmul float %36, %37
  %neg20 = fneg float %mul19
  %38 = call float @llvm.fmuladd.f32(float %mul17, float %35, float %neg20)
  %39 = load ptr, ptr %_this, align 8
  %b3 = getelementptr inbounds %class.aiMatrix4x4t, ptr %39, i32 0, i32 6
  store float %38, ptr %b3, align 4
  %40 = load float, ptr %sy, align 4
  %fneg = fneg float %40
  %41 = load ptr, ptr %_this, align 8
  %c1 = getelementptr inbounds %class.aiMatrix4x4t, ptr %41, i32 0, i32 8
  store float %fneg, ptr %c1, align 4
  %42 = load float, ptr %cy, align 4
  %43 = load float, ptr %sx, align 4
  %mul21 = fmul float %42, %43
  %44 = load ptr, ptr %_this, align 8
  %c2 = getelementptr inbounds %class.aiMatrix4x4t, ptr %44, i32 0, i32 9
  store float %mul21, ptr %c2, align 4
  %45 = load float, ptr %cy, align 4
  %46 = load float, ptr %cx, align 4
  %mul22 = fmul float %45, %46
  %47 = load ptr, ptr %_this, align 8
  %c3 = getelementptr inbounds %class.aiMatrix4x4t, ptr %47, i32 0, i32 10
  store float %mul22, ptr %c3, align 4
  ret ptr %this1
}

; Function Attrs: mustprogress uwtable
define void @aiMatrix4FromEulerAngles(ptr noundef %mat, float noundef %x, float noundef %y, float noundef %z) #5 {
entry:
  %mat.addr = alloca ptr, align 8
  %x.addr = alloca float, align 4
  %y.addr = alloca float, align 4
  %z.addr = alloca float, align 4
  store ptr %mat, ptr %mat.addr, align 8
  store float %x, ptr %x.addr, align 4
  store float %y, ptr %y.addr, align 4
  store float %z, ptr %z.addr, align 4
  %0 = load ptr, ptr %mat.addr, align 8
  %1 = load float, ptr %x.addr, align 4
  %2 = load float, ptr %y.addr, align 4
  %3 = load float, ptr %z.addr, align 4
  %call = call noundef nonnull align 4 dereferenceable(64) ptr @_ZN12aiMatrix4x4tIfE18FromEulerAnglesXYZEfff(ptr noundef nonnull align 4 dereferenceable(64) %0, float noundef %1, float noundef %2, float noundef %3)
  ret void
}