; Function Attrs: mustprogress nofree nounwind willreturn memory(write) uwtable
define void @aiMatrix4FromEulerAngles(ptr nocapture noundef writeonly %mat, float noundef %x, float noundef %y, float noundef %z) local_unnamed_addr #16 {
entry:
  %call.i.i = tail call noundef float @cosf(float noundef %x) #44
  %call.i35.i = tail call noundef float @sinf(float noundef %x) #44
  %call.i36.i = tail call noundef float @cosf(float noundef %y) #44
  %call.i37.i = tail call noundef float @sinf(float noundef %y) #44
  %call.i38.i = tail call noundef float @cosf(float noundef %z) #44
  %call.i39.i = tail call noundef float @sinf(float noundef %z) #44
  %mul.i = fmul float %call.i36.i, %call.i38.i
  store float %mul.i, ptr %mat, align 4
  %mul7.i = fmul float %call.i37.i, %call.i38.i
  %0 = fneg float %call.i39.i
  %a2.i = getelementptr inbounds i8, ptr %mat, i64 4
  %1 = insertelement <2 x float> poison, float %call.i.i, i64 0
  %2 = shufflevector <2 x float> %1, <2 x float> poison, <2 x i32> zeroinitializer
  %3 = insertelement <2 x float> poison, float %0, i64 0
  %4 = insertelement <2 x float> %3, float %mul7.i, i64 1
  %5 = fmul <2 x float> %2, %4
  %6 = insertelement <2 x float> poison, float %mul7.i, i64 0
  %7 = insertelement <2 x float> %6, float %call.i39.i, i64 1
  %8 = insertelement <2 x float> poison, float %call.i35.i, i64 0
  %9 = shufflevector <2 x float> %8, <2 x float> poison, <2 x i32> zeroinitializer
  %10 = tail call <2 x float> @llvm.fmuladd.v2f32(<2 x float> %7, <2 x float> %9, <2 x float> %5)
  store <2 x float> %10, ptr %a2.i, align 4
  %mul13.i = fmul float %call.i36.i, %call.i39.i
  %b1.i = getelementptr inbounds i8, ptr %mat, i64 16
  store float %mul13.i, ptr %b1.i, align 4
  %mul15.i = fmul float %call.i37.i, %call.i39.i
  %b2.i = getelementptr inbounds i8, ptr %mat, i64 20
  %11 = fneg float %call.i38.i
  %12 = insertelement <2 x float> poison, float %mul15.i, i64 0
  %13 = insertelement <2 x float> %12, float %11, i64 1
  %14 = fmul <2 x float> %9, %13
  %15 = insertelement <2 x float> poison, float %call.i38.i, i64 0
  %16 = insertelement <2 x float> %15, float %mul15.i, i64 1
  %17 = tail call <2 x float> @llvm.fmuladd.v2f32(<2 x float> %16, <2 x float> %2, <2 x float> %14)
  store <2 x float> %17, ptr %b2.i, align 4
  %fneg.i = fneg float %call.i37.i
  %c1.i = getelementptr inbounds i8, ptr %mat, i64 32
  store float %fneg.i, ptr %c1.i, align 4
  %c2.i = getelementptr inbounds i8, ptr %mat, i64 36
  %18 = insertelement <2 x float> %8, float %call.i.i, i64 1
  %19 = insertelement <2 x float> poison, float %call.i36.i, i64 0
  %20 = shufflevector <2 x float> %19, <2 x float> poison, <2 x i32> zeroinitializer
  %21 = fmul <2 x float> %18, %20
  store <2 x float> %21, ptr %c2.i, align 4
  ret void
}